target datalayout = "e-m:e-p270:32:32-p271:32:32-p272:64:64-i64:64-i128:128-f80:128-n8:16:32:64-S128"
target triple = "x86_64-unknown-linux-gnu"

%struct.USBBusOps = type { ptr, ptr }
%struct.USBPortOps = type { ptr, ptr, ptr, ptr, ptr }
%struct.EHCIState = type { %struct.USBBus, ptr, ptr, %struct.MemoryRegion, ptr, %struct.MemoryRegion, %struct.MemoryRegion, %struct.MemoryRegion, i32, i8, i16, i16, i16, i16, i32, [16 x i8], %union.anon.5, [6 x i32], ptr, ptr, i8, i32, i32, [6 x %struct.USBPort], [6 x ptr], i32, i32, %union.EHCIQueueHead, %union.EHCIQueueHead, i32, i32, %struct.USBPacket, %struct.QEMUSGList, i64, i32, i32, i8, ptr }
%struct.USBBus = type { %struct.BusState, ptr, i32, i32, i32, %union.anon, %union.anon.0, %union.anon.1 }
%struct.BusState = type { %struct.Object, ptr, ptr, ptr, i32, i8, i8, i32, %union.BusChildHead, %struct.BusStateEntry, %struct.ResettableState }
%struct.Object = type { ptr, ptr, ptr, i32, ptr }
%union.BusChildHead = type { %struct.QTailQLink }
%struct.QTailQLink = type { ptr, ptr }
%struct.BusStateEntry = type { ptr, ptr }
%struct.ResettableState = type { i32, i8, i8 }
%union.anon = type { %struct.QTailQLink }
%union.anon.0 = type { %struct.QTailQLink }
%union.anon.1 = type { %struct.QTailQLink }
%struct.MemoryRegion = type { %struct.Object, i8, i8, i8, i8, i8, i8, i8, i8, i8, i8, ptr, ptr, ptr, ptr, ptr, ptr, i32, i128, i64, ptr, i64, i8, i8, i8, i8, i8, ptr, i64, i32, %union.anon.2, %union.anon.3, %union.anon.4, ptr, i32, ptr, ptr, i8 }
%union.anon.2 = type { %struct.QTailQLink }
%union.anon.3 = type { %struct.QTailQLink }
%union.anon.4 = type { %struct.QTailQLink }
%union.anon.5 = type { [17 x i32] }
%struct.USBPort = type { ptr, i32, i32, [16 x i8], ptr, ptr, i32, %union.anon.6 }
%union.anon.6 = type { %struct.QTailQLink }
%union.EHCIQueueHead = type { %struct.QTailQLink }
%struct.USBPacket = type { i32, i64, ptr, i32, %struct.QEMUIOVector, i64, i8, i8, i32, i32, i32, ptr, %union.anon.10, %union.anon.11 }
%struct.QEMUIOVector = type { ptr, i32, %union.anon.7 }
%union.anon.7 = type { %struct.anon.8 }
%struct.anon.8 = type { i32, %struct.iovec }
%struct.iovec = type { ptr, i64 }
%union.anon.10 = type { %struct.QTailQLink }
%union.anon.11 = type { %struct.QTailQLink }
%struct.QEMUSGList = type { ptr, i32, i32, i64, ptr, ptr }
%struct.DeviceState = type { %struct.Object, ptr, ptr, i8, i8, i64, ptr, i32, i8, ptr, %struct.NamedGPIOListHead, %struct.NamedClockListHead, %struct.BusStateHead, i32, i32, i32, %struct.ResettableState, ptr, %struct.MemReentrancyGuard }
%struct.NamedGPIOListHead = type { ptr }
%struct.NamedClockListHead = type { ptr }
%struct.BusStateHead = type { ptr }
%struct.MemReentrancyGuard = type { i8 }

@.str.24 = private unnamed_addr constant [26 x i8] c"../qemu/hw/usb/hcd-ehci.c\00", align 1
@__func__.usb_ehci_realize = private unnamed_addr constant [17 x i8] c"usb_ehci_realize\00", align 1
@.str.25 = private unnamed_addr constant [40 x i8] c"Too many ports! Max. port number is %d.\00", align 1
@.str.26 = private unnamed_addr constant [37 x i8] c"maxframes %d out if range (8 .. 512)\00", align 1
@ehci_bus_ops_companion = internal global %struct.USBBusOps { ptr @ehci_register_companion, ptr @ehci_wakeup_endpoint }, align 8
@ehci_bus_ops_standalone = internal global %struct.USBBusOps { ptr null, ptr @ehci_wakeup_endpoint }, align 8
@ehci_port_ops = internal global %struct.USBPortOps { ptr @ehci_attach, ptr @ehci_detach, ptr @ehci_child_detach, ptr @ehci_wakeup, ptr @ehci_async_complete_packet }, align 8
@.str.27 = private unnamed_addr constant [13 x i8] c"ehci_work_bh\00", align 1

; Function Attrs: nounwind sspstrong uwtable
define internal ptr @timer_new_full(ptr noundef %timer_list_group, i32 noundef %type, i32 noundef %scale, i32 noundef %attributes, ptr noundef %cb, ptr noundef %opaque) #0 {
entry:
  %timer_list_group.addr = alloca ptr, align 8
  %type.addr = alloca i32, align 4
  %scale.addr = alloca i32, align 4
  %attributes.addr = alloca i32, align 4
  %cb.addr = alloca ptr, align 8
  %opaque.addr = alloca ptr, align 8
  %ts = alloca ptr, align 8
  store ptr %timer_list_group, ptr %timer_list_group.addr, align 8
  store i32 %type, ptr %type.addr, align 4
  store i32 %scale, ptr %scale.addr, align 4
  store i32 %attributes, ptr %attributes.addr, align 4
  store ptr %cb, ptr %cb.addr, align 8
  store ptr %opaque, ptr %opaque.addr, align 8
  %call = call noalias ptr @g_malloc0_n(i64 noundef 1, i64 noundef 48) #14
  store ptr %call, ptr %ts, align 8
  %0 = load ptr, ptr %ts, align 8
  %1 = load ptr, ptr %timer_list_group.addr, align 8
  %2 = load i32, ptr %type.addr, align 4
  %3 = load i32, ptr %scale.addr, align 4
  %4 = load i32, ptr %attributes.addr, align 4
  %5 = load ptr, ptr %cb.addr, align 8
  %6 = load ptr, ptr %opaque.addr, align 8
  call void @timer_init_full(ptr noundef %0, ptr noundef %1, i32 noundef %2, i32 noundef %3, i32 noundef %4, ptr noundef %5, ptr noundef %6)
  %7 = load ptr, ptr %ts, align 8
  ret ptr %7
}

; Function Attrs: nounwind sspstrong uwtable
define internal ptr @timer_new(i32 noundef %type, i32 noundef %scale, ptr noundef %cb, ptr noundef %opaque) #0 {
entry:
  %type.addr = alloca i32, align 4
  %scale.addr = alloca i32, align 4
  %cb.addr = alloca ptr, align 8
  %opaque.addr = alloca ptr, align 8
  store i32 %type, ptr %type.addr, align 4
  store i32 %scale, ptr %scale.addr, align 4
  store ptr %cb, ptr %cb.addr, align 8
  store ptr %opaque, ptr %opaque.addr, align 8
  %0 = load i32, ptr %type.addr, align 4
  %1 = load i32, ptr %scale.addr, align 4
  %2 = load ptr, ptr %cb.addr, align 8
  %3 = load ptr, ptr %opaque.addr, align 8
  %call = call ptr @timer_new_full(ptr noundef null, i32 noundef %0, i32 noundef %1, i32 noundef 0, ptr noundef %2, ptr noundef %3)
  ret ptr %call
}

; Function Attrs: nounwind sspstrong uwtable
define internal ptr @timer_new_ns(i32 noundef %type, ptr noundef %cb, ptr noundef %opaque) #0 {
entry:
  %type.addr = alloca i32, align 4
  %cb.addr = alloca ptr, align 8
  %opaque.addr = alloca ptr, align 8
  store i32 %type, ptr %type.addr, align 4
  store ptr %cb, ptr %cb.addr, align 8
  store ptr %opaque, ptr %opaque.addr, align 8
  %0 = load i32, ptr %type.addr, align 4
  %1 = load ptr, ptr %cb.addr, align 8
  %2 = load ptr, ptr %opaque.addr, align 8
  %call = call ptr @timer_new(i32 noundef %0, i32 noundef 1, ptr noundef %1, ptr noundef %2)
  ret ptr %call
}

; Function Attrs: nounwind sspstrong uwtable
define dso_local void @usb_ehci_realize(ptr noundef %s, ptr noundef %dev, ptr noundef %errp) #0 {
entry:
  %s.addr = alloca ptr, align 8
  %dev.addr = alloca ptr, align 8
  %errp.addr = alloca ptr, align 8
  %i = alloca i32, align 4
  store ptr %s, ptr %s.addr, align 8
  store ptr %dev, ptr %dev.addr, align 8
  store ptr %errp, ptr %errp.addr, align 8
  %0 = load ptr, ptr %s.addr, align 8
  %portnr = getelementptr inbounds %struct.EHCIState, ptr %0, i32 0, i32 13
  %1 = load i16, ptr %portnr, align 4
  %conv = zext i16 %1 to i32
  %cmp = icmp sgt i32 %conv, 6
  br i1 %cmp, label %if.then, label %if.end

if.then:                                          ; preds = %entry
  %2 = load ptr, ptr %errp.addr, align 8
  call void (ptr, ptr, i32, ptr, ptr, ...) @error_setg_internal(ptr noundef %2, ptr noundef @.str.24, i32 noundef 2513, ptr noundef @__func__.usb_ehci_realize, ptr noundef @.str.25, i32 noundef 6)
  br label %return

if.end:                                           ; preds = %entry
  %3 = load ptr, ptr %s.addr, align 8
  %maxframes = getelementptr inbounds %struct.EHCIState, ptr %3, i32 0, i32 14
  %4 = load i32, ptr %maxframes, align 16
  %cmp2 = icmp ult i32 %4, 8
  br i1 %cmp2, label %if.then7, label %lor.lhs.false

lor.lhs.false:                                    ; preds = %if.end
  %5 = load ptr, ptr %s.addr, align 8
  %maxframes4 = getelementptr inbounds %struct.EHCIState, ptr %5, i32 0, i32 14
  %6 = load i32, ptr %maxframes4, align 16
  %cmp5 = icmp ugt i32 %6, 512
  br i1 %cmp5, label %if.then7, label %if.end9

if.then7:                                         ; preds = %lor.lhs.false, %if.end
  %7 = load ptr, ptr %errp.addr, align 8
  %8 = load ptr, ptr %s.addr, align 8
  %maxframes8 = getelementptr inbounds %struct.EHCIState, ptr %8, i32 0, i32 14
  %9 = load i32, ptr %maxframes8, align 16
  call void (ptr, ptr, i32, ptr, ptr, ...) @error_setg_internal(ptr noundef %7, ptr noundef @.str.24, i32 noundef 2518, ptr noundef @__func__.usb_ehci_realize, ptr noundef @.str.26, i32 noundef %9)
  br label %return

if.end9:                                          ; preds = %lor.lhs.false
  %10 = load ptr, ptr %s.addr, align 8
  %mem = getelementptr inbounds %struct.EHCIState, ptr %10, i32 0, i32 3
  %11 = load ptr, ptr %s.addr, align 8
  %capsbase = getelementptr inbounds %struct.EHCIState, ptr %11, i32 0, i32 10
  %12 = load i16, ptr %capsbase, align 2
  %conv10 = zext i16 %12 to i64
  %13 = load ptr, ptr %s.addr, align 8
  %mem_caps = getelementptr inbounds %struct.EHCIState, ptr %13, i32 0, i32 5
  call void @memory_region_add_subregion(ptr noundef %mem, i64 noundef %conv10, ptr noundef %mem_caps)
  %14 = load ptr, ptr %s.addr, align 8
  %mem11 = getelementptr inbounds %struct.EHCIState, ptr %14, i32 0, i32 3
  %15 = load ptr, ptr %s.addr, align 8
  %opregbase = getelementptr inbounds %struct.EHCIState, ptr %15, i32 0, i32 11
  %16 = load i16, ptr %opregbase, align 8
  %conv12 = zext i16 %16 to i64
  %17 = load ptr, ptr %s.addr, align 8
  %mem_opreg = getelementptr inbounds %struct.EHCIState, ptr %17, i32 0, i32 6
  call void @memory_region_add_subregion(ptr noundef %mem11, i64 noundef %conv12, ptr noundef %mem_opreg)
  %18 = load ptr, ptr %s.addr, align 8
  %mem13 = getelementptr inbounds %struct.EHCIState, ptr %18, i32 0, i32 3
  %19 = load ptr, ptr %s.addr, align 8
  %opregbase14 = getelementptr inbounds %struct.EHCIState, ptr %19, i32 0, i32 11
  %20 = load i16, ptr %opregbase14, align 8
  %conv15 = zext i16 %20 to i32
  %21 = load ptr, ptr %s.addr, align 8
  %portscbase = getelementptr inbounds %struct.EHCIState, ptr %21, i32 0, i32 12
  %22 = load i16, ptr %portscbase, align 2
  %conv16 = zext i16 %22 to i32
  %add = add i32 %conv15, %conv16
  %conv17 = sext i32 %add to i64
  %23 = load ptr, ptr %s.addr, align 8
  %mem_ports = getelementptr inbounds %struct.EHCIState, ptr %23, i32 0, i32 7
  call void @memory_region_add_subregion(ptr noundef %mem13, i64 noundef %conv17, ptr noundef %mem_ports)
  %24 = load ptr, ptr %s.addr, align 8
  %bus = getelementptr inbounds %struct.EHCIState, ptr %24, i32 0, i32 0
  %25 = load ptr, ptr %s.addr, align 8
  %companion_enable = getelementptr inbounds %struct.EHCIState, ptr %25, i32 0, i32 9
  %26 = load i8, ptr %companion_enable, align 4
  %tobool = trunc i8 %26 to i1
  %cond = select i1 %tobool, ptr @ehci_bus_ops_companion, ptr @ehci_bus_ops_standalone
  %27 = load ptr, ptr %dev.addr, align 8
  call void @usb_bus_new(ptr noundef %bus, i64 noundef 192, ptr noundef %cond, ptr noundef %27)
  store i32 0, ptr %i, align 4
  br label %for.cond

for.cond:                                         ; preds = %for.inc, %if.end9
  %28 = load i32, ptr %i, align 4
  %29 = load ptr, ptr %s.addr, align 8
  %portnr19 = getelementptr inbounds %struct.EHCIState, ptr %29, i32 0, i32 13
  %30 = load i16, ptr %portnr19, align 4
  %conv20 = zext i16 %30 to i32
  %cmp21 = icmp slt i32 %28, %conv20
  br i1 %cmp21, label %for.body, label %for.end

for.body:                                         ; preds = %for.cond
  %31 = load ptr, ptr %s.addr, align 8
  %bus23 = getelementptr inbounds %struct.EHCIState, ptr %31, i32 0, i32 0
  %32 = load ptr, ptr %s.addr, align 8
  %ports = getelementptr inbounds %struct.EHCIState, ptr %32, i32 0, i32 23
  %33 = load i32, ptr %i, align 4
  %idxprom = sext i32 %33 to i64
  %arrayidx = getelementptr [6 x %struct.USBPort], ptr %ports, i64 0, i64 %idxprom
  %34 = load ptr, ptr %s.addr, align 8
  %35 = load i32, ptr %i, align 4
  call void @usb_register_port(ptr noundef %bus23, ptr noundef %arrayidx, ptr noundef %34, i32 noundef %35, ptr noundef @ehci_port_ops, i32 noundef 4)
  %36 = load ptr, ptr %s.addr, align 8
  %ports24 = getelementptr inbounds %struct.EHCIState, ptr %36, i32 0, i32 23
  %37 = load i32, ptr %i, align 4
  %idxprom25 = sext i32 %37 to i64
  %arrayidx26 = getelementptr [6 x %struct.USBPort], ptr %ports24, i64 0, i64 %idxprom25
  %dev27 = getelementptr inbounds %struct.USBPort, ptr %arrayidx26, i32 0, i32 0
  store ptr null, ptr %dev27, align 8
  br label %for.inc

for.inc:                                          ; preds = %for.body
  %38 = load i32, ptr %i, align 4
  %inc = add i32 %38, 1
  store i32 %inc, ptr %i, align 4
  br label %for.cond, !llvm.loop !10

for.end:                                          ; preds = %for.cond
  %39 = load ptr, ptr %s.addr, align 8
  %call = call ptr @timer_new_ns(i32 noundef 1, ptr noundef @ehci_work_timer, ptr noundef %39)
  %40 = load ptr, ptr %s.addr, align 8
  %frame_timer = getelementptr inbounds %struct.EHCIState, ptr %40, i32 0, i32 18
  store ptr %call, ptr %frame_timer, align 16
  %41 = load ptr, ptr %s.addr, align 8
  %42 = load ptr, ptr %dev.addr, align 8
  %mem_reentrancy_guard = getelementptr inbounds %struct.DeviceState, ptr %42, i32 0, i32 18
  %call28 = call ptr @qemu_bh_new_full(ptr noundef @ehci_work_bh, ptr noundef %41, ptr noundef @.str.27, ptr noundef %mem_reentrancy_guard)
  %43 = load ptr, ptr %s.addr, align 8
  %async_bh = getelementptr inbounds %struct.EHCIState, ptr %43, i32 0, i32 19
  store ptr %call28, ptr %async_bh, align 8
  %44 = load ptr, ptr %dev.addr, align 8
  %45 = load ptr, ptr %s.addr, align 8
  %device = getelementptr inbounds %struct.EHCIState, ptr %45, i32 0, i32 1
  store ptr %44, ptr %device, align 16
  %46 = load ptr, ptr %s.addr, align 8
  %call29 = call ptr @qemu_add_vm_change_state_handler(ptr noundef @usb_ehci_vm_state_change, ptr noundef %46)
  %47 = load ptr, ptr %s.addr, align 8
  %vmstate = getelementptr inbounds %struct.EHCIState, ptr %47, i32 0, i32 37
  store ptr %call29, ptr %vmstate, align 8
  br label %return

return:                                           ; preds = %for.end, %if.then7, %if.then
  ret void
}