; Function Attrs: nounwind sspstrong uwtable
define dso_local void @usb_ehci_realize(ptr noundef %s, ptr noundef %dev, ptr noundef %errp) local_unnamed_addr #0 {
entry:
  %portnr = getelementptr inbounds nuw i8, ptr %s, i64 1324
  %0 = load i16, ptr %portnr, align 4
  %cmp = icmp ugt i16 %0, 6
  br i1 %cmp, label %if.then, label %if.end

if.then:                                          ; preds = %entry
  tail call void (ptr, ptr, i32, ptr, ptr, ...) @error_setg_internal(ptr noundef %errp, ptr noundef nonnull @.str.24, i32 noundef 2513, ptr noundef nonnull @__func__.usb_ehci_realize, ptr noundef nonnull @.str.25, i32 noundef 6) #17
  br label %return

if.end:                                           ; preds = %entry
  %maxframes = getelementptr inbounds nuw i8, ptr %s, i64 1328
  %1 = load i32, ptr %maxframes, align 16
  %2 = add i32 %1, -513
  %or.cond = icmp ult i32 %2, -505
  br i1 %or.cond, label %if.then7, label %if.end9

if.then7:                                         ; preds = %if.end
  tail call void (ptr, ptr, i32, ptr, ptr, ...) @error_setg_internal(ptr noundef %errp, ptr noundef nonnull @.str.24, i32 noundef 2518, ptr noundef nonnull @__func__.usb_ehci_realize, ptr noundef nonnull @.str.26, i32 noundef %1) #17
  br label %return

if.end9:                                          ; preds = %if.end
  %mem = getelementptr inbounds nuw i8, ptr %s, i64 208
  %capsbase = getelementptr inbounds nuw i8, ptr %s, i64 1318
  %3 = load i16, ptr %capsbase, align 2
  %conv10 = zext i16 %3 to i64
  %mem_caps = getelementptr inbounds nuw i8, ptr %s, i64 496
  tail call void @memory_region_add_subregion(ptr noundef nonnull %mem, i64 noundef %conv10, ptr noundef nonnull %mem_caps) #17
  %opregbase = getelementptr inbounds nuw i8, ptr %s, i64 1320
  %4 = load i16, ptr %opregbase, align 8
  %conv12 = zext i16 %4 to i64
  %mem_opreg = getelementptr inbounds nuw i8, ptr %s, i64 768
  tail call void @memory_region_add_subregion(ptr noundef nonnull %mem, i64 noundef %conv12, ptr noundef nonnull %mem_opreg) #17
  %5 = load i16, ptr %opregbase, align 8
  %conv15 = zext i16 %5 to i64
  %portscbase = getelementptr inbounds nuw i8, ptr %s, i64 1322
  %6 = load i16, ptr %portscbase, align 2
  %conv16 = zext i16 %6 to i64
  %add = add nuw nsw i64 %conv16, %conv15
  %mem_ports = getelementptr inbounds nuw i8, ptr %s, i64 1040
  tail call void @memory_region_add_subregion(ptr noundef nonnull %mem, i64 noundef %add, ptr noundef nonnull %mem_ports) #17
  %companion_enable = getelementptr inbounds nuw i8, ptr %s, i64 1316
  %7 = load i8, ptr %companion_enable, align 4
  %tobool = trunc i8 %7 to i1
  %cond = select i1 %tobool, ptr @ehci_bus_ops_companion, ptr @ehci_bus_ops_standalone
  tail call void @usb_bus_new(ptr noundef nonnull %s, i64 noundef 192, ptr noundef nonnull %cond, ptr noundef %dev) #17
  %8 = load i16, ptr %portnr, align 4
  %cmp2136.not = icmp eq i16 %8, 0
  br i1 %cmp2136.not, label %for.end, label %for.body.lr.ph

for.body.lr.ph:                                   ; preds = %if.end9
  %ports = getelementptr inbounds nuw i8, ptr %s, i64 1472
  br label %for.body

for.body:                                         ; preds = %for.body.lr.ph, %for.body
  %indvars.iv = phi i64 [ 0, %for.body.lr.ph ], [ %indvars.iv.next, %for.body ]
  %arrayidx = getelementptr [6 x %struct.USBPort], ptr %ports, i64 0, i64 %indvars.iv
  %9 = trunc nuw nsw i64 %indvars.iv to i32
  tail call void @usb_register_port(ptr noundef nonnull %s, ptr noundef %arrayidx, ptr noundef nonnull %s, i32 noundef %9, ptr noundef nonnull @ehci_port_ops, i32 noundef 4) #17
  store ptr null, ptr %arrayidx, align 8
  %indvars.iv.next = add nuw nsw i64 %indvars.iv, 1
  %10 = load i16, ptr %portnr, align 4
  %11 = zext i16 %10 to i64
  %cmp21 = icmp samesign ult i64 %indvars.iv.next, %11
  br i1 %cmp21, label %for.body, label %for.end, !llvm.loop !10

for.end:                                          ; preds = %for.body, %if.end9
  %call.i.i.i = tail call noalias dereferenceable_or_null(48) ptr @g_malloc0_n(i64 noundef 1, i64 noundef 48) #18
  tail call void @timer_init_full(ptr noundef %call.i.i.i, ptr noundef null, i32 noundef 1, i32 noundef 1, i32 noundef 0, ptr noundef nonnull @ehci_work_timer, ptr noundef nonnull %s) #17
  %frame_timer = getelementptr inbounds nuw i8, ptr %s, i64 1440
  store ptr %call.i.i.i, ptr %frame_timer, align 16
  %mem_reentrancy_guard = getelementptr inbounds nuw i8, ptr %dev, i64 152
  %call28 = tail call ptr @qemu_bh_new_full(ptr noundef nonnull @ehci_work_bh, ptr noundef nonnull %s, ptr noundef nonnull @.str.27, ptr noundef nonnull %mem_reentrancy_guard) #17
  %async_bh = getelementptr inbounds nuw i8, ptr %s, i64 1448
  store ptr %call28, ptr %async_bh, align 8
  %device = getelementptr inbounds nuw i8, ptr %s, i64 192
  store ptr %dev, ptr %device, align 16
  %call29 = tail call ptr @qemu_add_vm_change_state_handler(ptr noundef nonnull @usb_ehci_vm_state_change, ptr noundef nonnull %s) #17
  %vmstate = getelementptr inbounds nuw i8, ptr %s, i64 2200
  store ptr %call29, ptr %vmstate, align 8
  br label %return

return:                                           ; preds = %for.end, %if.then7, %if.then
  ret void
}